; Function Attrs: nounwind uwtable
define i32 @Wlc_ObjDup(ptr noundef captures(none) %0, ptr noundef readonly captures(none) %1, i32 noundef %2, ptr noundef captures(none) initializes((4, 8)) %3) local_unnamed_addr #3 {
  %5 = getelementptr i8, ptr %1, i64 640
  %.val20 = load ptr, ptr %5, align 8
  %6 = sext i32 %2 to i64
  %7 = getelementptr inbounds %struct.Wlc_Obj_t_, ptr %.val20, i64 %6
  %8 = load i16, ptr %7, align 8
  %9 = and i16 %8, 63
  %10 = zext nneg i16 %9 to i32
  %11 = lshr i16 %8, 6
  %12 = and i16 %11, 1
  %13 = zext nneg i16 %12 to i32
  %14 = getelementptr inbounds nuw i8, ptr %7, i64 8
  %15 = load i32, ptr %14, align 8
  %16 = getelementptr inbounds nuw i8, ptr %7, i64 12
  %17 = load i32, ptr %16, align 4
  %18 = tail call i32 @Wlc_ObjAlloc(ptr noundef %0, i32 noundef %10, i32 noundef %13, i32 noundef %15, i32 noundef %17)
  %19 = getelementptr i8, ptr %0, i64 640
  %.val = load ptr, ptr %19, align 8
  %20 = sext i32 %18 to i64
  %21 = getelementptr inbounds %struct.Wlc_Obj_t_, ptr %.val, i64 %20
  tail call void @Wlc_ObjCollectCopyFanins(ptr noundef %1, i32 noundef %2, ptr noundef %3)
  %22 = getelementptr i8, ptr %3, i64 4
  %.val15.i = load i32, ptr %22, align 4
  %.val15.fr.i = freeze i32 %.val15.i
  %23 = getelementptr inbounds nuw i8, ptr %21, i64 4
  store i32 %.val15.fr.i, ptr %23, align 4
  %24 = load i16, ptr %21, align 8
  %25 = and i16 %24, 63
  switch i16 %25, label %26 [
    i16 6, label %.thread.thread.i
    i16 22, label %.thread.thread18.i
    i16 53, label %.thread.thread18.i
  ]

.thread.thread.i:                                 ; preds = %4
  store i32 0, ptr %23, align 4
  br label %28

.thread.thread18.i:                               ; preds = %4, %4
  store i32 1, ptr %23, align 4
  %.not.old.i = icmp eq i16 %25, 22
  br i1 %.not.old.i, label %28, label %.thread.i

26:                                               ; preds = %4
  %27 = icmp ugt i32 %.val15.fr.i, 2
  br i1 %27, label %28, label %switch.early.test.i

switch.early.test.i:                              ; preds = %26
  switch i16 %25, label %.thread.i [
    i16 22, label %28
    i16 6, label %28
  ]

28:                                               ; preds = %switch.early.test.i, %switch.early.test.i, %26, %.thread.thread18.i, %.thread.thread.i
  %29 = getelementptr inbounds nuw i8, ptr %0, i64 656
  %30 = load ptr, ptr %29, align 8
  %.val14.i = load i32, ptr %22, align 4
  %31 = shl i32 %.val14.i, 2
  %32 = tail call ptr @Mem_FlexEntryFetch(ptr noundef %30, i32 noundef %31) #25
  %33 = getelementptr inbounds nuw i8, ptr %21, i64 16
  store ptr %32, ptr %33, align 8
  %.pre.i = load i32, ptr %23, align 4
  %34 = icmp ugt i32 %.pre.i, 2
  br i1 %34, label %Wlc_ObjHasArray.exit.thread.i.i, label %..thread.i_crit_edge

..thread.i_crit_edge:                             ; preds = %28
  %.pre = load i16, ptr %21, align 8
  %.pre23 = and i16 %.pre, 63
  br label %.thread.i

.thread.i:                                        ; preds = %..thread.i_crit_edge, %switch.early.test.i, %.thread.thread18.i
  %.pre-phi = phi i16 [ %.pre23, %..thread.i_crit_edge ], [ %25, %switch.early.test.i ], [ %25, %.thread.thread18.i ]
  switch i16 %.pre-phi, label %37 [
    i16 6, label %Wlc_ObjHasArray.exit.thread.i.i
    i16 22, label %Wlc_ObjHasArray.exit.thread.i.i
  ]

Wlc_ObjHasArray.exit.thread.i.i:                  ; preds = %.thread.i, %.thread.i, %28
  %35 = getelementptr inbounds nuw i8, ptr %21, i64 16
  %36 = load ptr, ptr %35, align 8
  br label %Wlc_ObjAddFanins.exit

37:                                               ; preds = %.thread.i
  %38 = getelementptr inbounds nuw i8, ptr %21, i64 16
  br label %Wlc_ObjAddFanins.exit

Wlc_ObjAddFanins.exit:                            ; preds = %Wlc_ObjHasArray.exit.thread.i.i, %37
  %39 = phi ptr [ %36, %Wlc_ObjHasArray.exit.thread.i.i ], [ %38, %37 ]
  %40 = getelementptr i8, ptr %3, i64 8
  %.val16.i = load ptr, ptr %40, align 8
  %.val.i = load i32, ptr %22, align 4
  %41 = sext i32 %.val.i to i64
  %42 = shl nsw i64 %41, 2
  tail call void @llvm.memcpy.p0.p0.i64(ptr align 4 %39, ptr align 4 %.val16.i, i64 %42, i1 false)
  %43 = getelementptr i8, ptr %1, i64 760
  %.val22 = load ptr, ptr %43, align 8
  %44 = getelementptr inbounds i32, ptr %.val22, i64 %6
  store i32 %18, ptr %44, align 4
  %45 = load i16, ptr %7, align 8
  %46 = and i16 %45, 2048
  %47 = load i16, ptr %21, align 8
  %48 = and i16 %47, -2049
  %49 = or disjoint i16 %48, %46
  store i16 %49, ptr %21, align 8
  ret i32 %18
}